; Function Attrs: nounwind uwtable
define dso_local void @ExprEvalPushStep(ptr noundef captures(none) %0, ptr noundef readonly captures(none) %1) local_unnamed_addr #0 {
  %3 = getelementptr inbounds nuw i8, ptr %0, i64 60
  %4 = load i32, ptr %3, align 4
  %5 = icmp eq i32 %4, 0
  br i1 %5, label %6, label %9

6:                                                ; preds = %2
  store i32 16, ptr %3, align 4
  %7 = tail call ptr @palloc(i64 noundef 1024) #10
  %8 = getelementptr inbounds nuw i8, ptr %0, i64 24
  store ptr %7, ptr %8, align 8
  br label %20

9:                                                ; preds = %2
  %10 = getelementptr inbounds nuw i8, ptr %0, i64 56
  %11 = load i32, ptr %10, align 8
  %12 = icmp eq i32 %4, %11
  br i1 %12, label %13, label %._crit_edge

._crit_edge:                                      ; preds = %9
  %.phi.trans.insert = getelementptr inbounds nuw i8, ptr %0, i64 24
  %.pre = load ptr, ptr %.phi.trans.insert, align 8
  br label %20

13:                                               ; preds = %9
  %14 = shl i32 %4, 1
  store i32 %14, ptr %3, align 4
  %15 = getelementptr inbounds nuw i8, ptr %0, i64 24
  %16 = load ptr, ptr %15, align 8
  %17 = sext i32 %14 to i64
  %18 = shl nsw i64 %17, 6
  %19 = tail call ptr @repalloc(ptr noundef %16, i64 noundef %18) #10
  store ptr %19, ptr %15, align 8
  br label %20

20:                                               ; preds = %._crit_edge, %13, %6
  %21 = phi ptr [ %.pre, %._crit_edge ], [ %19, %13 ], [ %7, %6 ]
  %22 = getelementptr inbounds nuw i8, ptr %0, i64 56
  %23 = load i32, ptr %22, align 8
  %24 = add i32 %23, 1
  store i32 %24, ptr %22, align 8
  %25 = sext i32 %23 to i64
  %26 = getelementptr inbounds %struct.ExprEvalStep, ptr %21, i64 %25
  tail call void @llvm.memcpy.p0.p0.i64(ptr noundef nonnull align 8 dereferenceable(64) %26, ptr noundef nonnull align 8 dereferenceable(64) %1, i64 64, i1 false)
  ret void
}